ccopy_reg
_reconstructor
p0
(cgeometry_msgs.msg._Pose
Pose
p1
c__builtin__
object
p2
Ntp3
Rp4
(lp5
g0
(cgeometry_msgs.msg._Point
Point
p6
g2
Ntp7
Rp8
(lp9
F36.67547386989545
aF4.241195701474732
aF0.0
abag0
(cgeometry_msgs.msg._Quaternion
Quaternion
p10
g2
Ntp11
Rp12
(lp13
F0.0
aF0.0
aF0.9938043366211475
aF0.11114378306050633
abab.