ccopy_reg
_reconstructor
p0
(cgeometry_msgs.msg._Pose
Pose
p1
c__builtin__
object
p2
Ntp3
Rp4
(lp5
g0
(cgeometry_msgs.msg._Point
Point
p6
g2
Ntp7
Rp8
(lp9
F0.2808767328513104
aF1.2252241251874219
aF0.0
abag0
(cgeometry_msgs.msg._Quaternion
Quaternion
p10
g2
Ntp11
Rp12
(lp13
F0.0
aF0.0
aF-0.6642258495957197
aF0.7475319529818403
abab.